target datalayout = "e-m:e-p270:32:32-p271:32:32-p272:64:64-i64:64-i128:128-f80:128-n8:16:32:64-S128"
target triple = "x86_64-unknown-linux-gnu"

%struct.Node = type { i32, ptr, ptr, ptr, ptr, ptr, ptr, ptr, ptr, ptr, ptr, ptr, ptr, ptr, ptr, ptr, ptr, i8, ptr, ptr, ptr, ptr, ptr, ptr, i64, i64, ptr, ptr, ptr, ptr, ptr, ptr, ptr, i64, x86_fp80 }

; Function Attrs: nounwind uwtable
define internal i64 @eval(ptr noundef %node) #0 {
entry:
  %node.addr = alloca ptr, align 8
  store ptr %node, ptr %node.addr, align 8
  %0 = load ptr, ptr %node.addr, align 8
  %call = call i64 @eval2(ptr noundef %0, ptr noundef null)
  ret i64 %call
}

; Function Attrs: nounwind uwtable
define internal zeroext i1 @is_const_expr(ptr noundef %node) #0 {
entry:
  %retval = alloca i1, align 1
  %node.addr = alloca ptr, align 8
  store ptr %node, ptr %node.addr, align 8
  %0 = load ptr, ptr %node.addr, align 8
  call void @add_type(ptr noundef %0)
  %1 = load ptr, ptr %node.addr, align 8
  %kind = getelementptr inbounds %struct.Node, ptr %1, i32 0, i32 0
  %2 = load i32, ptr %kind, align 16
  switch i32 %2, label %sw.epilog [
    i32 1, label %sw.bb
    i32 2, label %sw.bb
    i32 3, label %sw.bb
    i32 4, label %sw.bb
    i32 7, label %sw.bb
    i32 8, label %sw.bb
    i32 9, label %sw.bb
    i32 10, label %sw.bb
    i32 11, label %sw.bb
    i32 12, label %sw.bb
    i32 13, label %sw.bb
    i32 14, label %sw.bb
    i32 15, label %sw.bb
    i32 24, label %sw.bb
    i32 25, label %sw.bb
    i32 17, label %sw.bb2
    i32 18, label %sw.bb8
    i32 5, label %sw.bb11
    i32 22, label %sw.bb11
    i32 23, label %sw.bb11
    i32 43, label %sw.bb11
    i32 42, label %sw.bb14
  ]

sw.bb:                                            ; preds = %entry, %entry, %entry, %entry, %entry, %entry, %entry, %entry, %entry, %entry, %entry, %entry, %entry, %entry, %entry
  %3 = load ptr, ptr %node.addr, align 8
  %lhs = getelementptr inbounds %struct.Node, ptr %3, i32 0, i32 4
  %4 = load ptr, ptr %lhs, align 16
  %call = call zeroext i1 @is_const_expr(ptr noundef %4)
  br i1 %call, label %land.rhs, label %land.end

land.rhs:                                         ; preds = %sw.bb
  %5 = load ptr, ptr %node.addr, align 8
  %rhs = getelementptr inbounds %struct.Node, ptr %5, i32 0, i32 5
  %6 = load ptr, ptr %rhs, align 8
  %call1 = call zeroext i1 @is_const_expr(ptr noundef %6)
  br label %land.end

land.end:                                         ; preds = %land.rhs, %sw.bb
  %7 = phi i1 [ false, %sw.bb ], [ %call1, %land.rhs ]
  store i1 %7, ptr %retval, align 1
  br label %return

sw.bb2:                                           ; preds = %entry
  %8 = load ptr, ptr %node.addr, align 8
  %cond = getelementptr inbounds %struct.Node, ptr %8, i32 0, i32 6
  %9 = load ptr, ptr %cond, align 16
  %call3 = call zeroext i1 @is_const_expr(ptr noundef %9)
  br i1 %call3, label %if.end, label %if.then

if.then:                                          ; preds = %sw.bb2
  store i1 false, ptr %retval, align 1
  br label %return

if.end:                                           ; preds = %sw.bb2
  %10 = load ptr, ptr %node.addr, align 8
  %cond4 = getelementptr inbounds %struct.Node, ptr %10, i32 0, i32 6
  %11 = load ptr, ptr %cond4, align 16
  %call5 = call i64 @eval(ptr noundef %11)
  %tobool = icmp ne i64 %call5, 0
  br i1 %tobool, label %cond.true, label %cond.false

cond.true:                                        ; preds = %if.end
  %12 = load ptr, ptr %node.addr, align 8
  %then = getelementptr inbounds %struct.Node, ptr %12, i32 0, i32 7
  %13 = load ptr, ptr %then, align 8
  br label %cond.end

cond.false:                                       ; preds = %if.end
  %14 = load ptr, ptr %node.addr, align 8
  %els = getelementptr inbounds %struct.Node, ptr %14, i32 0, i32 8
  %15 = load ptr, ptr %els, align 16
  br label %cond.end

cond.end:                                         ; preds = %cond.false, %cond.true
  %cond6 = phi ptr [ %13, %cond.true ], [ %15, %cond.false ]
  %call7 = call zeroext i1 @is_const_expr(ptr noundef %cond6)
  store i1 %call7, ptr %retval, align 1
  br label %return

sw.bb8:                                           ; preds = %entry
  %16 = load ptr, ptr %node.addr, align 8
  %rhs9 = getelementptr inbounds %struct.Node, ptr %16, i32 0, i32 5
  %17 = load ptr, ptr %rhs9, align 8
  %call10 = call zeroext i1 @is_const_expr(ptr noundef %17)
  store i1 %call10, ptr %retval, align 1
  br label %return

sw.bb11:                                          ; preds = %entry, %entry, %entry, %entry
  %18 = load ptr, ptr %node.addr, align 8
  %lhs12 = getelementptr inbounds %struct.Node, ptr %18, i32 0, i32 4
  %19 = load ptr, ptr %lhs12, align 16
  %call13 = call zeroext i1 @is_const_expr(ptr noundef %19)
  store i1 %call13, ptr %retval, align 1
  br label %return

sw.bb14:                                          ; preds = %entry
  store i1 true, ptr %retval, align 1
  br label %return

sw.epilog:                                        ; preds = %entry
  store i1 false, ptr %retval, align 1
  br label %return

return:                                           ; preds = %sw.epilog, %sw.bb14, %sw.bb11, %sw.bb8, %cond.end, %if.then, %land.end
  %20 = load i1, ptr %retval, align 1
  ret i1 %20
}