; Function Attrs: nounwind uwtable
define internal fastcc noundef zeroext i1 @is_const_expr(ptr noundef %node) unnamed_addr #0 {
entry:
  br label %tailrecurse

tailrecurse:                                      ; preds = %tailrecurse.backedge, %entry
  %node.tr = phi ptr [ %node, %entry ], [ %node.tr.be, %tailrecurse.backedge ]
  tail call void @add_type(ptr noundef %node.tr) #13
  %0 = load i32, ptr %node.tr, align 16
  switch i32 %0, label %return [
    i32 1, label %sw.bb
    i32 2, label %sw.bb
    i32 3, label %sw.bb
    i32 4, label %sw.bb
    i32 7, label %sw.bb
    i32 8, label %sw.bb
    i32 9, label %sw.bb
    i32 10, label %sw.bb
    i32 11, label %sw.bb
    i32 12, label %sw.bb
    i32 13, label %sw.bb
    i32 14, label %sw.bb
    i32 15, label %sw.bb
    i32 24, label %sw.bb
    i32 25, label %sw.bb
    i32 17, label %sw.bb2
    i32 18, label %sw.bb8
    i32 5, label %sw.bb11
    i32 22, label %sw.bb11
    i32 23, label %sw.bb11
    i32 43, label %sw.bb11
    i32 42, label %return.loopexit
  ]

sw.bb:                                            ; preds = %tailrecurse, %tailrecurse, %tailrecurse, %tailrecurse, %tailrecurse, %tailrecurse, %tailrecurse, %tailrecurse, %tailrecurse, %tailrecurse, %tailrecurse, %tailrecurse, %tailrecurse, %tailrecurse, %tailrecurse
  %lhs = getelementptr inbounds %struct.Node, ptr %node.tr, i64 0, i32 4
  %1 = load ptr, ptr %lhs, align 16
  %call = tail call fastcc zeroext i1 @is_const_expr(ptr noundef %1)
  br i1 %call, label %land.rhs, label %return

land.rhs:                                         ; preds = %sw.bb
  %rhs = getelementptr inbounds %struct.Node, ptr %node.tr, i64 0, i32 5
  br label %tailrecurse.backedge

tailrecurse.backedge:                             ; preds = %land.rhs, %if.end, %sw.bb8, %sw.bb11
  %node.tr.be.in = phi ptr [ %rhs, %land.rhs ], [ %cond6.in, %if.end ], [ %rhs9, %sw.bb8 ], [ %lhs12, %sw.bb11 ]
  %node.tr.be = load ptr, ptr %node.tr.be.in, align 8
  br label %tailrecurse

sw.bb2:                                           ; preds = %tailrecurse
  %cond = getelementptr inbounds %struct.Node, ptr %node.tr, i64 0, i32 6
  %2 = load ptr, ptr %cond, align 16
  %call3 = tail call fastcc zeroext i1 @is_const_expr(ptr noundef %2)
  br i1 %call3, label %if.end, label %return

if.end:                                           ; preds = %sw.bb2
  %3 = load ptr, ptr %cond, align 16
  %call.i = tail call fastcc i64 @eval2(ptr noundef %3, ptr noundef null)
  %tobool.not = icmp eq i64 %call.i, 0
  %then = getelementptr inbounds %struct.Node, ptr %node.tr, i64 0, i32 7
  %els = getelementptr inbounds %struct.Node, ptr %node.tr, i64 0, i32 8
  %cond6.in = select i1 %tobool.not, ptr %els, ptr %then
  br label %tailrecurse.backedge

sw.bb8:                                           ; preds = %tailrecurse
  %rhs9 = getelementptr inbounds %struct.Node, ptr %node.tr, i64 0, i32 5
  br label %tailrecurse.backedge

sw.bb11:                                          ; preds = %tailrecurse, %tailrecurse, %tailrecurse, %tailrecurse
  %lhs12 = getelementptr inbounds %struct.Node, ptr %node.tr, i64 0, i32 4
  br label %tailrecurse.backedge

return.loopexit:                                  ; preds = %tailrecurse
  br label %return

return:                                           ; preds = %sw.bb2, %sw.bb, %tailrecurse, %return.loopexit
  %retval.0 = phi i1 [ true, %return.loopexit ], [ false, %tailrecurse ], [ false, %sw.bb ], [ false, %sw.bb2 ]
  ret i1 %retval.0
}